target datalayout = "e-m:e-p270:32:32-p271:32:32-p272:64:64-i64:64-i128:128-f80:128-n8:16:32:64-S128"
target triple = "x86_64-pc-linux-gnu"

%struct.Curl_cftype = type { ptr, i32, i32, ptr, ptr, ptr, ptr, ptr, ptr, ptr, ptr, ptr, ptr, ptr, ptr }
%struct.Curl_sockaddr_ex = type { i32, i32, i32, i32, %union.anon }
%union.anon = type { %struct.Curl_sockaddr_storage }
%struct.Curl_sockaddr_storage = type { %union.anon.0 }
%union.anon.0 = type { %struct.sockaddr_storage }
%struct.sockaddr_storage = type { i16, [118 x i8], i64 }
%struct.Curl_easy = type { i32, i64, ptr, ptr, ptr, %struct.Curl_llist_element, %struct.Curl_llist_element, i32, i32, %struct.Curl_message, %struct.easy_pollset, %struct.Names, ptr, ptr, ptr, %struct.SingleRequest, %struct.UserDefined, ptr, ptr, %struct.Progress, %struct.UrlState, ptr, %struct.PureInfo, %struct.curl_tlssessioninfo }
%struct.Curl_llist_element = type { ptr, ptr, ptr }
%struct.Curl_message = type { %struct.Curl_llist_element, %struct.CURLMsg }
%struct.CURLMsg = type { i32, ptr, %union.anon.3 }
%union.anon.3 = type { ptr }
%struct.easy_pollset = type { [5 x i32], i32, [5 x i8] }
%struct.Names = type { ptr, i32 }
%struct.SingleRequest = type <{ i64, i64, i64, i64, i64, %struct.curltime, i32, i32, i32, i32, i64, i32, i32, %struct.curltime, i32, i32, ptr, i64, i64, ptr, ptr, i64, ptr, %union.anon.4, ptr, [2 x i8], i8, i16, [3 x i8] }>
%struct.curltime = type { i64, i32 }
%union.anon.4 = type { ptr }
%struct.UserDefined = type <{ ptr, ptr, ptr, ptr, ptr, ptr, i16, [6 x i8], i64, i64, i64, ptr, ptr, i64, i16, i16, [4 x i8], ptr, ptr, ptr, ptr, ptr, ptr, ptr, ptr, ptr, ptr, ptr, ptr, ptr, ptr, ptr, ptr, ptr, ptr, ptr, ptr, ptr, ptr, ptr, i32, i32, i32, i32, i64, i64, i64, i64, i64, i64, i64, i64, ptr, ptr, %struct.curl_mimepart, ptr, ptr, i64, i8, i8, i8, [5 x i8], %struct.ssl_config_data, %struct.ssl_config_data, ptr, i16, i8, i8, [4 x i8], %struct.ssl_general_config, i32, i32, i32, [4 x i8], ptr, ptr, i8, [7 x i8], i64, i8, i8, i8, i8, i32, ptr, ptr, ptr, i8, i8, [2 x i8], i32, [80 x ptr], [8 x ptr], i32, i32, i32, [4 x i8], ptr, ptr, ptr, ptr, ptr, i8, [3 x i8], i32, i32, [4 x i8], i64, %struct.Curl_data_priority, ptr, ptr, i64, ptr, ptr, ptr, ptr, ptr, i8, [3 x i8], i32, i8, i8, i56, [6 x i8] }>
%struct.curl_mimepart = type { ptr, ptr, i32, i32, ptr, ptr, ptr, ptr, ptr, ptr, ptr, ptr, ptr, ptr, ptr, i64, %struct.mime_state, ptr, %struct.mime_encoder_state, i64 }
%struct.mime_state = type { i32, ptr, i64 }
%struct.mime_encoder_state = type { i64, i64, i64, [256 x i8] }
%struct.ssl_config_data = type { %struct.ssl_primary_config, i64, ptr, ptr, ptr, ptr, ptr, ptr, ptr, i8 }
%struct.ssl_primary_config = type { ptr, ptr, ptr, ptr, ptr, ptr, ptr, ptr, ptr, ptr, ptr, ptr, i8, i32, i8, i8 }
%struct.ssl_general_config = type { i64, i32 }
%struct.Curl_data_priority = type { ptr, ptr, i32, i8 }
%struct.Progress = type { i64, i64, i64, i64, i64, i64, i32, i32, i64, i64, i64, i64, i64, i64, i64, i64, i64, i64, %struct.curltime, %struct.curltime, %struct.curltime, %struct.curltime, %struct.curltime, i64, %struct.curltime, i64, [6 x i64], [6 x %struct.curltime], i32, i8 }
%struct.UrlState = type { ptr, %struct.curltime, i64, i64, %struct.dynbuf, ptr, ptr, ptr, i64, ptr, i32, i32, i32, ptr, i64, [3 x %struct.tempbuf], i32, i32, ptr, i64, i32, ptr, %struct.digestdata, %struct.digestdata, %struct.auth, %struct.auth, %struct.Curl_async, ptr, %struct.curltime, %struct.Curl_tree, %struct.Curl_llist, [15 x %struct.time_node], ptr, i8, i64, ptr, i64, i64, %struct.Curl_data_priority, ptr, ptr, ptr, %struct.urlpieces, ptr, ptr, ptr, ptr, ptr, i64, %struct.dynbuf, %struct.Curl_llist, [2 x %struct.curl_header], ptr, i32, ptr, %struct.dynamically_allocated_data, i8, i8, i8, i8, i24 }
%struct.tempbuf = type { %struct.dynbuf, i32, i8 }
%struct.digestdata = type { ptr, ptr, ptr, ptr, ptr, ptr, i32, i8, i8 }
%struct.auth = type { i64, i64, i64, i8 }
%struct.Curl_async = type { ptr, ptr, ptr, ptr, i32, i32, i8 }
%struct.Curl_tree = type { ptr, ptr, ptr, ptr, %struct.curltime, ptr }
%struct.time_node = type { %struct.Curl_llist_element, %struct.curltime, i32 }
%struct.urlpieces = type { ptr, ptr, ptr, ptr, ptr, ptr, ptr, ptr }
%struct.dynbuf = type { ptr, i64, i64, i64 }
%struct.Curl_llist = type { ptr, ptr, ptr, i64 }
%struct.curl_header = type { ptr, ptr, i64, i64, i32, ptr }
%struct.dynamically_allocated_data = type { ptr, ptr, ptr, ptr, ptr, ptr, ptr, ptr, ptr, ptr, ptr, ptr, ptr, ptr }
%struct.PureInfo = type { i32, i32, i32, i64, i64, i64, i64, i64, ptr, ptr, i64, i32, [46 x i8], i32, i32, [46 x i8], i32, ptr, i32, %struct.curl_certinfo, i32, i8 }
%struct.curl_certinfo = type { i32, ptr }
%struct.curl_tlssessioninfo = type { i32, ptr }
%struct.connectdata = type { %struct.Curl_llist_element, ptr, ptr, i64, ptr, ptr, %struct.hostname, ptr, ptr, %struct.hostname, %struct.proxy_info, %struct.proxy_info, [46 x i8], ptr, ptr, ptr, ptr, ptr, %struct.curltime, %struct.curltime, %struct.curltime, [2 x i32], [2 x ptr], [2 x ptr], [2 x ptr], %struct.ssl_primary_config, %struct.ssl_primary_config, %struct.ConnectBits, ptr, ptr, %struct.curltime, i32, i32, %struct.Curl_llist, ptr, ptr, i32, i32, %struct.ntlmdata, %struct.ntlmdata, %union.anon.2, ptr, ptr, i16, i32, i32, i32, i32, i32, i16, i16, i8, i8, i8, i8, i8, i8, i8 }
%struct.hostname = type { ptr, ptr, ptr, ptr }
%struct.proxy_info = type { %struct.hostname, i32, i8, ptr, ptr }
%struct.ConnectBits = type { i32 }
%struct.ntlmdata = type { i32, [8 x i8], i32, ptr }
%union.anon.2 = type { %struct.ftp_conn }
%struct.ftp_conn = type { %struct.pingpong, ptr, ptr, ptr, ptr, ptr, ptr, ptr, i8, i64, ptr, i64, i32, i32, i32, i32, i32, i16, i8, i8, i8, i8, i8 }
%struct.pingpong = type { i64, i8, ptr, i64, i64, %struct.curltime, i64, %struct.dynbuf, %struct.dynbuf, i64, i64, ptr, ptr }
%struct.Curl_cfilter = type { ptr, ptr, ptr, ptr, i32, i8 }
%struct.cf_socket_ctx = type { i32, %struct.Curl_sockaddr_ex, i32, %struct.bufq, [46 x i8], i32, [46 x i8], i32, %struct.curltime, %struct.curltime, %struct.curltime, i32, i8 }
%struct.bufq = type { ptr, ptr, ptr, ptr, i64, i64, i64, i32 }

@.str.5 = private unnamed_addr constant [41 x i8] c"accepted_set(sock=%d, remote=%s port=%d)\00", align 1
@.str.53 = private unnamed_addr constant [39 x i8] c"getpeername() failed with errno %d: %s\00", align 1
@.str.54 = private unnamed_addr constant [43 x i8] c"ssrem inet_ntop() failed with errno %d: %s\00", align 1

; Function Attrs: nounwind uwtable
define internal void @set_accepted_remote_ip(ptr noundef %0, ptr noundef %1) #0 {
  %3 = alloca ptr, align 8
  %4 = alloca ptr, align 8
  %5 = alloca ptr, align 8
  %6 = alloca [256 x i8], align 16
  %7 = alloca %struct.Curl_sockaddr_storage, align 8
  %8 = alloca i32, align 4
  %9 = alloca i32, align 4
  store ptr %0, ptr %3, align 8
  store ptr %1, ptr %4, align 8
  %10 = load ptr, ptr %3, align 8
  %11 = getelementptr inbounds %struct.Curl_cfilter, ptr %10, i32 0, i32 2
  %12 = load ptr, ptr %11, align 8
  store ptr %12, ptr %5, align 8
  %13 = load ptr, ptr %5, align 8
  %14 = getelementptr inbounds %struct.cf_socket_ctx, ptr %13, i32 0, i32 4
  %15 = getelementptr inbounds [46 x i8], ptr %14, i64 0, i64 0
  store i8 0, ptr %15, align 8
  %16 = load ptr, ptr %5, align 8
  %17 = getelementptr inbounds %struct.cf_socket_ctx, ptr %16, i32 0, i32 5
  store i32 0, ptr %17, align 8
  store i32 128, ptr %8, align 4
  %18 = load i32, ptr %8, align 4
  %19 = zext i32 %18 to i64
  call void @llvm.memset.p0.i64(ptr align 8 %7, i8 0, i64 %19, i1 false)
  %20 = load ptr, ptr %5, align 8
  %21 = getelementptr inbounds %struct.cf_socket_ctx, ptr %20, i32 0, i32 2
  %22 = load i32, ptr %21, align 8
  %23 = call i32 @getpeername(i32 noundef %22, ptr noundef %7, ptr noundef %8) #7
  %24 = icmp ne i32 %23, 0
  br i1 %24, label %25, label %33

25:                                               ; preds = %2
  %26 = call ptr @__errno_location() #8
  %27 = load i32, ptr %26, align 4
  store i32 %27, ptr %9, align 4
  %28 = load ptr, ptr %4, align 8
  %29 = load i32, ptr %9, align 4
  %30 = load i32, ptr %9, align 4
  %31 = getelementptr inbounds [256 x i8], ptr %6, i64 0, i64 0
  %32 = call ptr @Curl_strerror(i32 noundef %30, ptr noundef %31, i64 noundef 256)
  call void (ptr, ptr, ...) @Curl_failf(ptr noundef %28, ptr noundef @.str.53, i32 noundef %29, ptr noundef %32)
  br label %49

33:                                               ; preds = %2
  %34 = load i32, ptr %8, align 4
  %35 = load ptr, ptr %5, align 8
  %36 = getelementptr inbounds %struct.cf_socket_ctx, ptr %35, i32 0, i32 4
  %37 = getelementptr inbounds [46 x i8], ptr %36, i64 0, i64 0
  %38 = load ptr, ptr %5, align 8
  %39 = getelementptr inbounds %struct.cf_socket_ctx, ptr %38, i32 0, i32 5
  %40 = call zeroext i1 @Curl_addr2string(ptr noundef %7, i32 noundef %34, ptr noundef %37, ptr noundef %39)
  br i1 %40, label %49, label %41

41:                                               ; preds = %33
  %42 = load ptr, ptr %4, align 8
  %43 = call ptr @__errno_location() #8
  %44 = load i32, ptr %43, align 4
  %45 = call ptr @__errno_location() #8
  %46 = load i32, ptr %45, align 4
  %47 = getelementptr inbounds [256 x i8], ptr %6, i64 0, i64 0
  %48 = call ptr @Curl_strerror(i32 noundef %46, ptr noundef %47, i64 noundef 256)
  call void (ptr, ptr, ...) @Curl_failf(ptr noundef %42, ptr noundef @.str.54, i32 noundef %44, ptr noundef %48)
  br label %49

49:                                               ; preds = %41, %33, %25
  ret void
}

; Function Attrs: nounwind uwtable
define internal i32 @socket_close(ptr noundef %0, ptr noundef %1, i32 noundef %2, i32 noundef %3) #0 {
  %5 = alloca i32, align 4
  %6 = alloca ptr, align 8
  %7 = alloca ptr, align 8
  %8 = alloca i32, align 4
  %9 = alloca i32, align 4
  %10 = alloca i32, align 4
  store ptr %0, ptr %6, align 8
  store ptr %1, ptr %7, align 8
  store i32 %2, ptr %8, align 4
  store i32 %3, ptr %9, align 4
  %11 = load i32, ptr %8, align 4
  %12 = icmp ne i32 %11, 0
  br i1 %12, label %13, label %35

13:                                               ; preds = %4
  %14 = load ptr, ptr %7, align 8
  %15 = icmp ne ptr %14, null
  br i1 %15, label %16, label %35

16:                                               ; preds = %13
  %17 = load ptr, ptr %7, align 8
  %18 = getelementptr inbounds %struct.connectdata, ptr %17, i32 0, i32 1
  %19 = load ptr, ptr %18, align 8
  %20 = icmp ne ptr %19, null
  br i1 %20, label %21, label %35

21:                                               ; preds = %16
  %22 = load ptr, ptr %6, align 8
  %23 = load i32, ptr %9, align 4
  call void @Curl_multi_closed(ptr noundef %22, i32 noundef %23)
  %24 = load ptr, ptr %6, align 8
  call void @Curl_set_in_callback(ptr noundef %24, i1 noundef zeroext true)
  %25 = load ptr, ptr %7, align 8
  %26 = getelementptr inbounds %struct.connectdata, ptr %25, i32 0, i32 1
  %27 = load ptr, ptr %26, align 8
  %28 = load ptr, ptr %7, align 8
  %29 = getelementptr inbounds %struct.connectdata, ptr %28, i32 0, i32 2
  %30 = load ptr, ptr %29, align 8
  %31 = load i32, ptr %9, align 4
  %32 = call i32 %27(ptr noundef %30, i32 noundef %31)
  store i32 %32, ptr %10, align 4
  %33 = load ptr, ptr %6, align 8
  call void @Curl_set_in_callback(ptr noundef %33, i1 noundef zeroext false)
  %34 = load i32, ptr %10, align 4
  store i32 %34, ptr %5, align 4
  br label %44

35:                                               ; preds = %16, %13, %4
  %36 = load ptr, ptr %7, align 8
  %37 = icmp ne ptr %36, null
  br i1 %37, label %38, label %41

38:                                               ; preds = %35
  %39 = load ptr, ptr %6, align 8
  %40 = load i32, ptr %9, align 4
  call void @Curl_multi_closed(ptr noundef %39, i32 noundef %40)
  br label %41

41:                                               ; preds = %38, %35
  %42 = load i32, ptr %9, align 4
  %43 = call i32 @close(i32 noundef %42)
  store i32 0, ptr %5, align 4
  br label %44

44:                                               ; preds = %41, %21
  %45 = load i32, ptr %5, align 4
  ret i32 %45
}

; Function Attrs: nounwind uwtable
define dso_local i32 @Curl_conn_tcp_accepted_set(ptr noundef %0, ptr noundef %1, i32 noundef %2, ptr noundef %3) #0 {
  %5 = alloca i32, align 4
  %6 = alloca ptr, align 8
  %7 = alloca ptr, align 8
  %8 = alloca i32, align 4
  %9 = alloca ptr, align 8
  %10 = alloca ptr, align 8
  %11 = alloca ptr, align 8
  %12 = alloca %struct.curltime, align 8
  store ptr %0, ptr %6, align 8
  store ptr %1, ptr %7, align 8
  store i32 %2, ptr %8, align 4
  store ptr %3, ptr %9, align 8
  store ptr null, ptr %10, align 8
  store ptr null, ptr %11, align 8
  %13 = load ptr, ptr %7, align 8
  %14 = getelementptr inbounds %struct.connectdata, ptr %13, i32 0, i32 24
  %15 = load i32, ptr %8, align 4
  %16 = sext i32 %15 to i64
  %17 = getelementptr inbounds [2 x ptr], ptr %14, i64 0, i64 %16
  %18 = load ptr, ptr %17, align 8
  store ptr %18, ptr %10, align 8
  %19 = load ptr, ptr %10, align 8
  %20 = icmp ne ptr %19, null
  br i1 %20, label %21, label %26

21:                                               ; preds = %4
  %22 = load ptr, ptr %10, align 8
  %23 = getelementptr inbounds %struct.Curl_cfilter, ptr %22, i32 0, i32 0
  %24 = load ptr, ptr %23, align 8
  %25 = icmp ne ptr %24, @Curl_cft_tcp_accept
  br i1 %25, label %26, label %27

26:                                               ; preds = %21, %4
  store i32 2, ptr %5, align 4
  br label %112

27:                                               ; preds = %21
  %28 = load ptr, ptr %10, align 8
  %29 = getelementptr inbounds %struct.Curl_cfilter, ptr %28, i32 0, i32 2
  %30 = load ptr, ptr %29, align 8
  store ptr %30, ptr %11, align 8
  %31 = load ptr, ptr %6, align 8
  %32 = load ptr, ptr %7, align 8
  %33 = load ptr, ptr %11, align 8
  %34 = getelementptr inbounds %struct.cf_socket_ctx, ptr %33, i32 0, i32 2
  %35 = load i32, ptr %34, align 8
  %36 = call i32 @socket_close(ptr noundef %31, ptr noundef %32, i32 noundef 1, i32 noundef %35)
  %37 = load ptr, ptr %9, align 8
  %38 = load i32, ptr %37, align 4
  %39 = load ptr, ptr %11, align 8
  %40 = getelementptr inbounds %struct.cf_socket_ctx, ptr %39, i32 0, i32 2
  store i32 %38, ptr %40, align 8
  %41 = load ptr, ptr %11, align 8
  %42 = getelementptr inbounds %struct.cf_socket_ctx, ptr %41, i32 0, i32 2
  %43 = load i32, ptr %42, align 8
  %44 = load ptr, ptr %7, align 8
  %45 = getelementptr inbounds %struct.connectdata, ptr %44, i32 0, i32 21
  %46 = load i32, ptr %8, align 4
  %47 = sext i32 %46 to i64
  %48 = getelementptr inbounds [2 x i32], ptr %45, i64 0, i64 %47
  store i32 %43, ptr %48, align 4
  %49 = load ptr, ptr %10, align 8
  %50 = load ptr, ptr %6, align 8
  call void @set_accepted_remote_ip(ptr noundef %49, ptr noundef %50)
  %51 = load ptr, ptr %10, align 8
  %52 = load ptr, ptr %6, align 8
  %53 = call i32 @set_local_ip(ptr noundef %51, ptr noundef %52)
  %54 = load ptr, ptr %11, align 8
  %55 = getelementptr inbounds %struct.cf_socket_ctx, ptr %54, i32 0, i32 12
  %56 = load i8, ptr %55, align 4
  %57 = and i8 %56, -9
  %58 = or i8 %57, 8
  store i8 %58, ptr %55, align 4
  %59 = load ptr, ptr %11, align 8
  %60 = getelementptr inbounds %struct.cf_socket_ctx, ptr %59, i32 0, i32 12
  %61 = load i8, ptr %60, align 4
  %62 = and i8 %61, -3
  %63 = or i8 %62, 2
  store i8 %63, ptr %60, align 4
  %64 = load ptr, ptr %11, align 8
  %65 = getelementptr inbounds %struct.cf_socket_ctx, ptr %64, i32 0, i32 9
  %66 = call { i64, i32 } @Curl_now()
  %67 = getelementptr inbounds { i64, i32 }, ptr %12, i32 0, i32 0
  %68 = extractvalue { i64, i32 } %66, 0
  store i64 %68, ptr %67, align 8
  %69 = getelementptr inbounds { i64, i32 }, ptr %12, i32 0, i32 1
  %70 = extractvalue { i64, i32 } %66, 1
  store i32 %70, ptr %69, align 8
  call void @llvm.memcpy.p0.p0.i64(ptr align 8 %65, ptr align 8 %12, i64 16, i1 false)
  %71 = load ptr, ptr %10, align 8
  %72 = getelementptr inbounds %struct.Curl_cfilter, ptr %71, i32 0, i32 5
  %73 = load i8, ptr %72, align 4
  %74 = and i8 %73, -2
  %75 = or i8 %74, 1
  store i8 %75, ptr %72, align 4
  br label %76

76:                                               ; preds = %27
  %77 = load ptr, ptr %6, align 8
  %78 = icmp ne ptr %77, null
  br i1 %78, label %79, label %110

79:                                               ; preds = %76
  %80 = load ptr, ptr %6, align 8
  %81 = getelementptr inbounds %struct.Curl_easy, ptr %80, i32 0, i32 16
  %82 = getelementptr inbounds %struct.UserDefined, ptr %81, i32 0, i32 122
  %83 = load i64, ptr %82, align 2
  %84 = lshr i64 %83, 28
  %85 = and i64 %84, 1
  %86 = trunc i64 %85 to i32
  %87 = icmp ne i32 %86, 0
  br i1 %87, label %88, label %110

88:                                               ; preds = %79
  %89 = load ptr, ptr %10, align 8
  %90 = icmp ne ptr %89, null
  br i1 %90, label %91, label %110

91:                                               ; preds = %88
  %92 = load ptr, ptr %10, align 8
  %93 = getelementptr inbounds %struct.Curl_cfilter, ptr %92, i32 0, i32 0
  %94 = load ptr, ptr %93, align 8
  %95 = getelementptr inbounds %struct.Curl_cftype, ptr %94, i32 0, i32 2
  %96 = load i32, ptr %95, align 4
  %97 = icmp sge i32 %96, 1
  br i1 %97, label %98, label %110

98:                                               ; preds = %91
  %99 = load ptr, ptr %6, align 8
  %100 = load ptr, ptr %10, align 8
  %101 = load ptr, ptr %11, align 8
  %102 = getelementptr inbounds %struct.cf_socket_ctx, ptr %101, i32 0, i32 2
  %103 = load i32, ptr %102, align 8
  %104 = load ptr, ptr %11, align 8
  %105 = getelementptr inbounds %struct.cf_socket_ctx, ptr %104, i32 0, i32 4
  %106 = getelementptr inbounds [46 x i8], ptr %105, i64 0, i64 0
  %107 = load ptr, ptr %11, align 8
  %108 = getelementptr inbounds %struct.cf_socket_ctx, ptr %107, i32 0, i32 5
  %109 = load i32, ptr %108, align 8
  call void (ptr, ptr, ptr, ...) @Curl_trc_cf_infof(ptr noundef %99, ptr noundef %100, ptr noundef @.str.5, i32 noundef %103, ptr noundef %106, i32 noundef %109)
  br label %110

110:                                              ; preds = %98, %91, %88, %79, %76
  br label %111

111:                                              ; preds = %110
  store i32 0, ptr %5, align 4
  br label %112

112:                                              ; preds = %111, %26
  %113 = load i32, ptr %5, align 4
  ret i32 %113
}