; Function Attrs: nounwind uwtable
define dso_local range(i32 0, 3) i32 @Curl_conn_tcp_accepted_set(ptr noundef %0, ptr noundef captures(none) %1, i32 noundef %2, ptr noundef readonly captures(none) %3) local_unnamed_addr #2 {
  %5 = alloca [256 x i8], align 16
  %6 = alloca %struct.Curl_sockaddr_storage, align 8
  %7 = alloca i32, align 4
  %8 = getelementptr inbounds nuw i8, ptr %1, i64 432
  %9 = sext i32 %2 to i64
  %10 = getelementptr inbounds [2 x ptr], ptr %8, i64 0, i64 %9
  %11 = load ptr, ptr %10, align 8
  %.not = icmp eq ptr %11, null
  br i1 %.not, label %66, label %12

12:                                               ; preds = %4
  %13 = load ptr, ptr %11, align 8
  %.not33 = icmp eq ptr %13, @Curl_cft_tcp_accept
  br i1 %.not33, label %14, label %66

14:                                               ; preds = %12
  %15 = getelementptr inbounds nuw i8, ptr %11, i64 16
  %16 = load ptr, ptr %15, align 8
  %17 = getelementptr inbounds nuw i8, ptr %16, i64 152
  %18 = load i32, ptr %17, align 8
  %19 = getelementptr inbounds nuw i8, ptr %1, i64 24
  %20 = load ptr, ptr %19, align 8
  %.not.i = icmp eq ptr %20, null
  tail call void @Curl_multi_closed(ptr noundef %0, i32 noundef %18) #13
  br i1 %.not.i, label %26, label %21

21:                                               ; preds = %14
  tail call void @Curl_set_in_callback(ptr noundef %0, i1 noundef zeroext true) #13
  %22 = load ptr, ptr %19, align 8
  %23 = getelementptr inbounds nuw i8, ptr %1, i64 32
  %24 = load ptr, ptr %23, align 8
  %25 = tail call i32 %22(ptr noundef %24, i32 noundef %18) #13
  tail call void @Curl_set_in_callback(ptr noundef %0, i1 noundef zeroext false) #13
  br label %socket_close.exit

26:                                               ; preds = %14
  %27 = tail call i32 @close(i32 noundef %18) #13
  br label %socket_close.exit

socket_close.exit:                                ; preds = %21, %26
  %28 = load i32, ptr %3, align 4
  store i32 %28, ptr %17, align 8
  %29 = getelementptr inbounds nuw i8, ptr %1, i64 392
  %30 = getelementptr inbounds [2 x i32], ptr %29, i64 0, i64 %9
  store i32 %28, ptr %30, align 4
  %.val36 = load ptr, ptr %15, align 8
  call void @llvm.lifetime.start.p0(i64 256, ptr nonnull %5)
  call void @llvm.lifetime.start.p0(i64 128, ptr nonnull %6)
  call void @llvm.lifetime.start.p0(i64 4, ptr nonnull %7)
  %31 = getelementptr inbounds nuw i8, ptr %.val36, i64 224
  store i8 0, ptr %31, align 8
  %32 = getelementptr inbounds nuw i8, ptr %.val36, i64 272
  store i32 0, ptr %32, align 8
  store i32 128, ptr %7, align 4
  call void @llvm.memset.p0.i64(ptr noundef nonnull align 8 dereferenceable(128) %6, i8 0, i64 128, i1 false)
  %33 = getelementptr inbounds nuw i8, ptr %.val36, i64 152
  %34 = load i32, ptr %33, align 8
  %35 = call i32 @getpeername(i32 noundef %34, ptr noundef nonnull %6, ptr noundef nonnull %7) #13
  %.not.i37 = icmp eq i32 %35, 0
  br i1 %.not.i37, label %36, label %.sink.split.i

36:                                               ; preds = %socket_close.exit
  %37 = load i32, ptr %7, align 4
  %38 = call zeroext i1 @Curl_addr2string(ptr noundef nonnull %6, i32 noundef %37, ptr noundef nonnull %31, ptr noundef nonnull %32) #13
  br i1 %38, label %set_accepted_remote_ip.exit, label %.sink.split.i

.sink.split.i:                                    ; preds = %36, %socket_close.exit
  %.str.54.sink.i = phi ptr [ @.str.53, %socket_close.exit ], [ @.str.54, %36 ]
  %39 = tail call ptr @__errno_location() #14
  %40 = load i32, ptr %39, align 4
  %41 = call ptr @Curl_strerror(i32 noundef %40, ptr noundef nonnull %5, i64 noundef 256) #13
  call void (ptr, ptr, ...) @Curl_failf(ptr noundef %0, ptr noundef nonnull %.str.54.sink.i, i32 noundef %40, ptr noundef %41) #13
  br label %set_accepted_remote_ip.exit

set_accepted_remote_ip.exit:                      ; preds = %36, %.sink.split.i
  call void @llvm.lifetime.end.p0(i64 256, ptr nonnull %5)
  call void @llvm.lifetime.end.p0(i64 128, ptr nonnull %6)
  call void @llvm.lifetime.end.p0(i64 4, ptr nonnull %7)
  %.val = load ptr, ptr %15, align 8
  call fastcc void @set_local_ip(ptr %.val, ptr noundef %0)
  %42 = getelementptr inbounds nuw i8, ptr %16, i64 380
  %43 = load i8, ptr %42, align 4
  %44 = or i8 %43, 10
  store i8 %44, ptr %42, align 4
  %45 = getelementptr inbounds nuw i8, ptr %16, i64 344
  %46 = call { i64, i32 } @Curl_now() #13
  %47 = extractvalue { i64, i32 } %46, 0
  %48 = extractvalue { i64, i32 } %46, 1
  store i64 %47, ptr %45, align 8
  %.sroa.2.0..sroa_idx = getelementptr inbounds nuw i8, ptr %16, i64 352
  store i32 %48, ptr %.sroa.2.0..sroa_idx, align 8
  %49 = getelementptr inbounds nuw i8, ptr %11, i64 36
  %50 = load i8, ptr %49, align 4
  %51 = or i8 %50, 1
  store i8 %51, ptr %49, align 4
  %.not34 = icmp eq ptr %0, null
  br i1 %.not34, label %66, label %52

52:                                               ; preds = %set_accepted_remote_ip.exit
  %53 = getelementptr inbounds nuw i8, ptr %0, i64 2642
  %54 = load i64, ptr %53, align 2
  %55 = and i64 %54, 268435456
  %.not35 = icmp eq i64 %55, 0
  br i1 %.not35, label %66, label %56

56:                                               ; preds = %52
  %57 = load ptr, ptr %11, align 8
  %58 = getelementptr inbounds nuw i8, ptr %57, i64 12
  %59 = load i32, ptr %58, align 4
  %60 = icmp sgt i32 %59, 0
  br i1 %60, label %61, label %66

61:                                               ; preds = %56
  %62 = load i32, ptr %17, align 8
  %63 = getelementptr inbounds nuw i8, ptr %16, i64 224
  %64 = getelementptr inbounds nuw i8, ptr %16, i64 272
  %65 = load i32, ptr %64, align 8
  call void (ptr, ptr, ptr, ...) @Curl_trc_cf_infof(ptr noundef nonnull %0, ptr noundef nonnull %11, ptr noundef nonnull @.str.5, i32 noundef %62, ptr noundef nonnull %63, i32 noundef %65) #13
  br label %66

66:                                               ; preds = %61, %56, %52, %set_accepted_remote_ip.exit, %4, %12
  %.0 = phi i32 [ 2, %12 ], [ 2, %4 ], [ 0, %set_accepted_remote_ip.exit ], [ 0, %52 ], [ 0, %56 ], [ 0, %61 ]
  ret i32 %.0
}